target datalayout = "e-m:e-p270:32:32-p271:32:32-p272:64:64-i64:64-i128:128-f80:128-n8:16:32:64-S128"
target triple = "x86_64-pc-linux-gnu"

%class.svector.1 = type { %class.vector.2 }
%class.vector.2 = type { ptr }
%class.min_cut = type { %class.vector, %class.svector, %class.svector }
%class.vector = type { ptr }
%class.svector = type { %class.vector.0 }
%class.vector.0 = type { ptr }
%"struct.min_cut::edge" = type { i32, i32 }

; Function Attrs: mustprogress nounwind uwtable
define linkonce_odr hidden noundef i32 @_ZNK6vectorIN7min_cut4edgeELb0EjE4sizeEv(ptr noundef nonnull align 8 dereferenceable(8) %0) #5 comdat align 2 {
  %2 = alloca i32, align 4
  %3 = alloca ptr, align 8
  store ptr %0, ptr %3, align 8, !tbaa !18
  %4 = load ptr, ptr %3, align 8
  %5 = getelementptr inbounds nuw %class.vector.2, ptr %4, i32 0, i32 0
  %6 = load ptr, ptr %5, align 8, !tbaa !24
  %7 = icmp eq ptr %6, null
  br i1 %7, label %8, label %9

8:                                                ; preds = %1
  store i32 0, ptr %2, align 4
  br label %14

9:                                                ; preds = %1
  %10 = getelementptr inbounds nuw %class.vector.2, ptr %4, i32 0, i32 0
  %11 = load ptr, ptr %10, align 8, !tbaa !24
  %12 = getelementptr inbounds i32, ptr %11, i64 -1
  %13 = load i32, ptr %12, align 4, !tbaa !16
  store i32 %13, ptr %2, align 4
  br label %14

14:                                               ; preds = %9, %8
  %15 = load i32, ptr %2, align 4
  ret i32 %15
}

; Function Attrs: inlinehint mustprogress nounwind uwtable
define linkonce_odr noundef nonnull align 4 dereferenceable(4) ptr @_ZSt3minIjERKT_S2_S2_(ptr noundef nonnull align 4 dereferenceable(4) %0, ptr noundef nonnull align 4 dereferenceable(4) %1) #8 comdat {
  %3 = alloca ptr, align 8
  %4 = alloca ptr, align 8
  %5 = alloca ptr, align 8
  store ptr %0, ptr %4, align 8, !tbaa !36
  store ptr %1, ptr %5, align 8, !tbaa !36
  %6 = load ptr, ptr %5, align 8, !tbaa !36
  %7 = load i32, ptr %6, align 4, !tbaa !16
  %8 = load ptr, ptr %4, align 8, !tbaa !36
  %9 = load i32, ptr %8, align 4, !tbaa !16
  %10 = icmp ult i32 %7, %9
  br i1 %10, label %11, label %13

11:                                               ; preds = %2
  %12 = load ptr, ptr %5, align 8, !tbaa !36
  store ptr %12, ptr %3, align 8
  br label %15

13:                                               ; preds = %2
  %14 = load ptr, ptr %4, align 8, !tbaa !36
  store ptr %14, ptr %3, align 8
  br label %15

15:                                               ; preds = %13, %11
  %16 = load ptr, ptr %3, align 8
  ret ptr %16
}

; Function Attrs: mustprogress uwtable
define linkonce_odr hidden noundef ptr @_ZN6vectorIN7min_cut4edgeELb0EjE3endEv(ptr noundef nonnull align 8 dereferenceable(8) %0) #4 comdat align 2 {
  %2 = alloca ptr, align 8
  store ptr %0, ptr %2, align 8, !tbaa !18
  %3 = load ptr, ptr %2, align 8
  %4 = getelementptr inbounds nuw %class.vector.2, ptr %3, i32 0, i32 0
  %5 = load ptr, ptr %4, align 8, !tbaa !24
  %6 = call noundef i32 @_ZNK6vectorIN7min_cut4edgeELb0EjE4sizeEv(ptr noundef nonnull align 8 dereferenceable(8) %3)
  %7 = zext i32 %6 to i64
  %8 = getelementptr inbounds nuw %"struct.min_cut::edge", ptr %5, i64 %7
  ret ptr %8
}

; Function Attrs: mustprogress nounwind uwtable
define linkonce_odr hidden noundef ptr @_ZN6vectorIN7min_cut4edgeELb0EjE5beginEv(ptr noundef nonnull align 8 dereferenceable(8) %0) #5 comdat align 2 {
  %2 = alloca ptr, align 8
  store ptr %0, ptr %2, align 8, !tbaa !18
  %3 = load ptr, ptr %2, align 8
  %4 = getelementptr inbounds nuw %class.vector.2, ptr %3, i32 0, i32 0
  %5 = load ptr, ptr %4, align 8, !tbaa !24
  ret ptr %5
}

; Function Attrs: mustprogress nounwind uwtable
define linkonce_odr hidden noundef nonnull align 8 dereferenceable(8) ptr @_ZN6vectorI7svectorIN7min_cut4edgeEjELb1EjEixEj(ptr noundef nonnull align 8 dereferenceable(8) %0, i32 noundef %1) #5 comdat align 2 {
  %3 = alloca ptr, align 8
  %4 = alloca i32, align 4
  store ptr %0, ptr %3, align 8, !tbaa !8
  store i32 %1, ptr %4, align 4, !tbaa !16
  %5 = load ptr, ptr %3, align 8
  %6 = getelementptr inbounds nuw %class.vector, ptr %5, i32 0, i32 0
  %7 = load ptr, ptr %6, align 8, !tbaa !10
  %8 = load i32, ptr %4, align 4, !tbaa !16
  %9 = zext i32 %8 to i64
  %10 = getelementptr inbounds nuw %class.svector.1, ptr %7, i64 %9
  ret ptr %10
}

; Function Attrs: mustprogress nounwind uwtable
define linkonce_odr hidden noundef i32 @_ZNSt14numeric_limitsIjE3maxEv() #5 comdat align 2 {
  ret i32 -1
}

; Function Attrs: mustprogress nounwind uwtable
define linkonce_odr hidden noundef nonnull align 4 dereferenceable(4) ptr @_ZN6vectorIjLb0EjEixEj(ptr noundef nonnull align 8 dereferenceable(8) %0, i32 noundef %1) #5 comdat align 2 {
  %3 = alloca ptr, align 8
  %4 = alloca i32, align 4
  store ptr %0, ptr %3, align 8, !tbaa !20
  store i32 %1, ptr %4, align 4, !tbaa !16
  %5 = load ptr, ptr %3, align 8
  %6 = getelementptr inbounds nuw %class.vector.0, ptr %5, i32 0, i32 0
  %7 = load ptr, ptr %6, align 8, !tbaa !33
  %8 = load i32, ptr %4, align 4, !tbaa !16
  %9 = zext i32 %8 to i64
  %10 = getelementptr inbounds nuw i32, ptr %7, i64 %9
  ret ptr %10
}

; Function Attrs: mustprogress uwtable
define hidden void @_ZN7min_cut16compute_distanceEj(ptr noundef nonnull align 8 dereferenceable(24) %0, i32 noundef %1) #4 align 2 {
  %3 = alloca ptr, align 8
  %4 = alloca i32, align 4
  %5 = alloca i32, align 4
  %6 = alloca ptr, align 8
  %7 = alloca ptr, align 8
  %8 = alloca ptr, align 8
  %9 = alloca ptr, align 8
  %10 = alloca i32, align 4
  store ptr %0, ptr %3, align 8, !tbaa !3
  store i32 %1, ptr %4, align 4, !tbaa !16
  %11 = load ptr, ptr %3, align 8
  %12 = load i32, ptr %4, align 4, !tbaa !16
  %13 = icmp eq i32 %12, 1
  br i1 %13, label %14, label %17

14:                                               ; preds = %2
  %15 = getelementptr inbounds nuw %class.min_cut, ptr %11, i32 0, i32 1
  %16 = call noundef nonnull align 4 dereferenceable(4) ptr @_ZN6vectorIjLb0EjEixEj(ptr noundef nonnull align 8 dereferenceable(8) %15, i32 noundef 1)
  store i32 0, ptr %16, align 4, !tbaa !16
  br label %56

17:                                               ; preds = %2
  call void @llvm.lifetime.start.p0(i64 4, ptr %5) #3
  %18 = call noundef i32 @_ZNSt14numeric_limitsIjE3maxEv() #3
  store i32 %18, ptr %5, align 4, !tbaa !16
  call void @llvm.lifetime.start.p0(i64 8, ptr %6) #3
  %19 = getelementptr inbounds nuw %class.min_cut, ptr %11, i32 0, i32 0
  %20 = load i32, ptr %4, align 4, !tbaa !16
  %21 = call noundef nonnull align 8 dereferenceable(8) ptr @_ZN6vectorI7svectorIN7min_cut4edgeEjELb1EjEixEj(ptr noundef nonnull align 8 dereferenceable(8) %19, i32 noundef %20)
  store ptr %21, ptr %6, align 8, !tbaa !15
  call void @llvm.lifetime.start.p0(i64 8, ptr %7) #3
  %22 = load ptr, ptr %6, align 8, !tbaa !15
  %23 = call noundef ptr @_ZN6vectorIN7min_cut4edgeELb0EjE5beginEv(ptr noundef nonnull align 8 dereferenceable(8) %22)
  store ptr %23, ptr %7, align 8, !tbaa !22
  call void @llvm.lifetime.start.p0(i64 8, ptr %8) #3
  %24 = load ptr, ptr %6, align 8, !tbaa !15
  %25 = call noundef ptr @_ZN6vectorIN7min_cut4edgeELb0EjE3endEv(ptr noundef nonnull align 8 dereferenceable(8) %24)
  store ptr %25, ptr %8, align 8, !tbaa !22
  br label %26

26:                                               ; preds = %48, %17
  %27 = load ptr, ptr %7, align 8, !tbaa !22
  %28 = load ptr, ptr %8, align 8, !tbaa !22
  %29 = icmp ne ptr %27, %28
  br i1 %29, label %31, label %30

30:                                               ; preds = %26
  call void @llvm.lifetime.end.p0(i64 8, ptr %8) #3
  call void @llvm.lifetime.end.p0(i64 8, ptr %7) #3
  call void @llvm.lifetime.end.p0(i64 8, ptr %6) #3
  br label %51

31:                                               ; preds = %26
  call void @llvm.lifetime.start.p0(i64 8, ptr %9) #3
  %32 = load ptr, ptr %7, align 8, !tbaa !22
  store ptr %32, ptr %9, align 8, !tbaa !22
  %33 = load ptr, ptr %9, align 8, !tbaa !22
  %34 = getelementptr inbounds nuw %"struct.min_cut::edge", ptr %33, i32 0, i32 1
  %35 = load i32, ptr %34, align 4, !tbaa !29
  %36 = icmp ugt i32 %35, 0
  br i1 %36, label %37, label %47

37:                                               ; preds = %31
  call void @llvm.lifetime.start.p0(i64 4, ptr %10) #3
  %38 = getelementptr inbounds nuw %class.min_cut, ptr %11, i32 0, i32 1
  %39 = load ptr, ptr %9, align 8, !tbaa !22
  %40 = getelementptr inbounds nuw %"struct.min_cut::edge", ptr %39, i32 0, i32 0
  %41 = load i32, ptr %40, align 4, !tbaa !27
  %42 = call noundef nonnull align 4 dereferenceable(4) ptr @_ZN6vectorIjLb0EjEixEj(ptr noundef nonnull align 8 dereferenceable(8) %38, i32 noundef %41)
  %43 = load i32, ptr %42, align 4, !tbaa !16
  %44 = add i32 %43, 1
  store i32 %44, ptr %10, align 4, !tbaa !16
  %45 = call noundef nonnull align 4 dereferenceable(4) ptr @_ZSt3minIjERKT_S2_S2_(ptr noundef nonnull align 4 dereferenceable(4) %5, ptr noundef nonnull align 4 dereferenceable(4) %10)
  %46 = load i32, ptr %45, align 4, !tbaa !16
  store i32 %46, ptr %5, align 4, !tbaa !16
  call void @llvm.lifetime.end.p0(i64 4, ptr %10) #3
  br label %47

47:                                               ; preds = %37, %31
  call void @llvm.lifetime.end.p0(i64 8, ptr %9) #3
  br label %48

48:                                               ; preds = %47
  %49 = load ptr, ptr %7, align 8, !tbaa !22
  %50 = getelementptr inbounds nuw %"struct.min_cut::edge", ptr %49, i32 1
  store ptr %50, ptr %7, align 8, !tbaa !22
  br label %26

51:                                               ; preds = %30
  %52 = load i32, ptr %5, align 4, !tbaa !16
  %53 = getelementptr inbounds nuw %class.min_cut, ptr %11, i32 0, i32 1
  %54 = load i32, ptr %4, align 4, !tbaa !16
  %55 = call noundef nonnull align 4 dereferenceable(4) ptr @_ZN6vectorIjLb0EjEixEj(ptr noundef nonnull align 8 dereferenceable(8) %53, i32 noundef %54)
  store i32 %52, ptr %55, align 4, !tbaa !16
  call void @llvm.lifetime.end.p0(i64 4, ptr %5) #3
  br label %56

56:                                               ; preds = %51, %14
  ret void
}