; Function Attrs: mustprogress nofree norecurse nosync nounwind memory(readwrite, inaccessiblemem: none) uwtable
define hidden void @_ZN7min_cut16compute_distanceEj(ptr noundef nonnull readonly align 8 captures(none) dereferenceable(24) %0, i32 noundef %1) local_unnamed_addr #8 align 2 {
  %3 = icmp eq i32 %1, 1
  br i1 %3, label %4, label %8

4:                                                ; preds = %2
  %5 = getelementptr inbounds nuw i8, ptr %0, i64 8
  %6 = load ptr, ptr %5, align 8, !tbaa !15
  %7 = getelementptr inbounds nuw i8, ptr %6, i64 4
  store i32 0, ptr %7, align 4, !tbaa !12
  br label %33

8:                                                ; preds = %2
  %9 = load ptr, ptr %0, align 8, !tbaa !9
  %10 = zext i32 %1 to i64
  %11 = getelementptr inbounds nuw %class.svector.1, ptr %9, i64 %10
  %12 = load ptr, ptr %11, align 8, !tbaa !3
  %13 = icmp eq ptr %12, null
  br i1 %13, label %_ZN6vectorIN7min_cut4edgeELb0EjE3endEv.exit.._crit_edge_crit_edge, label %_ZN6vectorIN7min_cut4edgeELb0EjE3endEv.exit

_ZN6vectorIN7min_cut4edgeELb0EjE3endEv.exit:      ; preds = %8
  %14 = getelementptr inbounds i8, ptr %12, i64 -4
  %15 = load i32, ptr %14, align 4, !tbaa !12
  %16 = zext i32 %15 to i64
  %17 = getelementptr inbounds nuw %"struct.min_cut::edge", ptr %12, i64 %16
  %.not18 = icmp eq i32 %15, 0
  br i1 %.not18, label %_ZN6vectorIN7min_cut4edgeELb0EjE3endEv.exit.._crit_edge_crit_edge, label %.lr.ph

_ZN6vectorIN7min_cut4edgeELb0EjE3endEv.exit.._crit_edge_crit_edge: ; preds = %8, %_ZN6vectorIN7min_cut4edgeELb0EjE3endEv.exit
  %.phi.trans.insert = getelementptr inbounds nuw i8, ptr %0, i64 8
  %.pre = load ptr, ptr %.phi.trans.insert, align 8, !tbaa !15
  br label %._crit_edge

.lr.ph:                                           ; preds = %_ZN6vectorIN7min_cut4edgeELb0EjE3endEv.exit
  %18 = getelementptr inbounds nuw i8, ptr %0, i64 8
  %19 = load ptr, ptr %18, align 8
  br label %22

._crit_edge:                                      ; preds = %31, %_ZN6vectorIN7min_cut4edgeELb0EjE3endEv.exit.._crit_edge_crit_edge
  %20 = phi ptr [ %.pre, %_ZN6vectorIN7min_cut4edgeELb0EjE3endEv.exit.._crit_edge_crit_edge ], [ %19, %31 ]
  %.017.lcssa = phi i32 [ -1, %_ZN6vectorIN7min_cut4edgeELb0EjE3endEv.exit.._crit_edge_crit_edge ], [ %.1, %31 ]
  %21 = getelementptr inbounds nuw i32, ptr %20, i64 %10
  store i32 %.017.lcssa, ptr %21, align 4, !tbaa !12
  br label %33

22:                                               ; preds = %.lr.ph, %31
  %.020 = phi ptr [ %12, %.lr.ph ], [ %32, %31 ]
  %.01719 = phi i32 [ -1, %.lr.ph ], [ %.1, %31 ]
  %23 = getelementptr inbounds nuw i8, ptr %.020, i64 4
  %24 = load i32, ptr %23, align 4, !tbaa !25
  %.not12 = icmp eq i32 %24, 0
  br i1 %.not12, label %31, label %25

25:                                               ; preds = %22
  %26 = load i32, ptr %.020, align 4, !tbaa !27
  %27 = zext i32 %26 to i64
  %28 = getelementptr inbounds nuw i32, ptr %19, i64 %27
  %29 = load i32, ptr %28, align 4, !tbaa !12
  %30 = add i32 %29, 1
  %.sroa.speculated = tail call i32 @llvm.umin.i32(i32 %30, i32 %.01719)
  br label %31

31:                                               ; preds = %25, %22
  %.1 = phi i32 [ %.01719, %22 ], [ %.sroa.speculated, %25 ]
  %32 = getelementptr inbounds nuw i8, ptr %.020, i64 8
  %.not = icmp eq ptr %32, %17
  br i1 %.not, label %._crit_edge, label %22

33:                                               ; preds = %._crit_edge, %4
  ret void
}